; Function Attrs: nounwind uwtable
define void @nk_property_float(ptr noundef %0, ptr noundef %1, float noundef %2, ptr noundef captures(address_is_null) %3, float noundef %4, float noundef %5, float noundef %6) local_unnamed_addr #18 {
  %8 = alloca %struct.nk_property_variant, align 8
  call void @llvm.lifetime.start.p0(i64 40, ptr nonnull %8) #51
  %.not = icmp eq ptr %0, null
  br i1 %.not, label %18, label %9

9:                                                ; preds = %7
  %10 = getelementptr inbounds nuw i8, ptr %0, i64 18520
  %11 = load ptr, ptr %10, align 8, !tbaa !824
  %12 = icmp ne ptr %11, null
  %13 = icmp ne ptr %1, null
  %or.cond = and i1 %13, %12
  %14 = icmp ne ptr %3, null
  %or.cond3 = and i1 %14, %or.cond
  br i1 %or.cond3, label %15, label %18

15:                                               ; preds = %9
  %16 = load float, ptr %3, align 4, !tbaa !3
  store i32 1, ptr %8, align 8, !tbaa !7
  %.sroa.417.0..sroa_idx = getelementptr inbounds nuw i8, ptr %8, i64 8
  store float %16, ptr %.sroa.417.0..sroa_idx, align 8
  %.sroa.518.0..sroa_idx = getelementptr inbounds nuw i8, ptr %8, i64 16
  store float %2, ptr %.sroa.518.0..sroa_idx, align 8
  %.sroa.619.0..sroa_idx = getelementptr inbounds nuw i8, ptr %8, i64 24
  store float %4, ptr %.sroa.619.0..sroa_idx, align 8
  %.sroa.720.0..sroa_idx = getelementptr inbounds nuw i8, ptr %8, i64 32
  store float %5, ptr %.sroa.720.0..sroa_idx, align 8
  call fastcc void @nk_property(ptr noundef %0, ptr noundef %1, ptr noundef %8, float noundef %6, i32 noundef 1)
  %17 = load float, ptr %.sroa.417.0..sroa_idx, align 8, !tbaa !9
  store float %17, ptr %3, align 4, !tbaa !3
  br label %18

18:                                               ; preds = %7, %9, %15
  call void @llvm.lifetime.end.p0(i64 40, ptr nonnull %8) #51
  ret void
}